target datalayout = "e-m:e-p270:32:32-p271:32:32-p272:64:64-i64:64-i128:128-f80:128-n8:16:32:64-S128"
target triple = "x86_64-pc-linux-gnu"

%struct._zval_struct = type { %union._zend_value, %union.anon, %union.anon.2 }
%union._zend_value = type { i64 }
%union.anon = type { i32 }
%union.anon.2 = type { i32 }
%struct._zend_refcounted_h = type { i32, %union.anon.3 }
%union.anon.3 = type { i32 }
%struct.anon.0 = type { i8, i8, %union.anon.1 }
%union.anon.1 = type { i16 }
%struct._zend_ast = type { i16, i16, i32, [1 x ptr] }
%struct._zend_ast_zval = type { i16, i16, %struct._zval_struct }
%struct._zend_refcounted = type { %struct._zend_refcounted_h }
%struct._zend_ast_ref = type { %struct._zend_refcounted_h }

; Function Attrs: nounwind uwtable
define i32 @zval_update_constant_with_ctx(ptr noundef %0, ptr noundef %1, ptr noundef %2) #0 {
  %4 = alloca ptr, align 8
  %5 = alloca ptr, align 8
  %6 = alloca ptr, align 8
  %7 = alloca ptr, align 8
  %8 = alloca ptr, align 8
  %9 = alloca ptr, align 8
  %10 = alloca ptr, align 8
  %11 = alloca i32, align 4
  %12 = alloca i32, align 4
  %13 = alloca i32, align 4
  %14 = alloca ptr, align 8
  %15 = alloca ptr, align 8
  %16 = alloca ptr, align 8
  %17 = alloca ptr, align 8
  %18 = alloca i32, align 4
  %19 = alloca ptr, align 8
  %20 = alloca ptr, align 8
  %21 = alloca ptr, align 8
  %22 = alloca ptr, align 8
  %23 = alloca ptr, align 8
  %24 = alloca ptr, align 8
  %25 = alloca ptr, align 8
  %26 = alloca ptr, align 8
  %27 = alloca ptr, align 8
  %28 = alloca i32, align 4
  %29 = alloca %struct._zval_struct, align 8
  %30 = alloca i8, align 1
  %31 = alloca ptr, align 8
  %32 = alloca i8, align 1
  %33 = alloca i32, align 4
  %34 = alloca ptr, align 8
  %35 = alloca ptr, align 8
  %36 = alloca ptr, align 8
  %37 = alloca i32, align 4
  store ptr %0, ptr %19, align 8
  store ptr %1, ptr %20, align 8
  store ptr %2, ptr %21, align 8
  %38 = load ptr, ptr %19, align 8
  store ptr %38, ptr %17, align 8
  %39 = load ptr, ptr %17, align 8
  %40 = getelementptr inbounds %struct._zval_struct, ptr %39, i32 0, i32 1
  %41 = load i8, ptr %40, align 8
  %42 = zext i8 %41 to i32
  %43 = icmp eq i32 %42, 11
  br i1 %43, label %44, label %263

44:                                               ; preds = %3
  %45 = load ptr, ptr %19, align 8
  %46 = getelementptr inbounds %struct._zval_struct, ptr %45, i32 0, i32 0
  %47 = load ptr, ptr %46, align 8
  %48 = getelementptr inbounds i8, ptr %47, i64 8
  store ptr %48, ptr %22, align 8
  %49 = load ptr, ptr %22, align 8
  %50 = getelementptr inbounds %struct._zend_ast, ptr %49, i32 0, i32 0
  %51 = load i16, ptr %50, align 8
  %52 = zext i16 %51 to i32
  %53 = icmp eq i32 %52, 65
  br i1 %53, label %54, label %164

54:                                               ; preds = %44
  %55 = load ptr, ptr %22, align 8
  store ptr %55, ptr %14, align 8
  %56 = load ptr, ptr %14, align 8
  %57 = load i16, ptr %56, align 8
  %58 = zext i16 %57 to i32
  %59 = icmp eq i32 %58, 65
  call void @llvm.assume(i1 %59)
  %60 = load ptr, ptr %14, align 8
  %61 = getelementptr inbounds %struct._zend_ast_zval, ptr %60, i32 0, i32 2
  %62 = load ptr, ptr %61, align 8
  store ptr %62, ptr %23, align 8
  %63 = load ptr, ptr %23, align 8
  %64 = load ptr, ptr %20, align 8
  %65 = load ptr, ptr %22, align 8
  %66 = getelementptr inbounds %struct._zend_ast, ptr %65, i32 0, i32 1
  %67 = load i16, ptr %66, align 2
  %68 = zext i16 %67 to i32
  %69 = call ptr @zend_get_constant_ex(ptr noundef %63, ptr noundef %64, i32 noundef %68)
  store ptr %69, ptr %24, align 8
  %70 = load ptr, ptr %24, align 8
  %71 = icmp eq ptr %70, null
  %72 = xor i1 %71, true
  %73 = xor i1 %72, true
  %74 = zext i1 %73 to i32
  %75 = sext i32 %74 to i64
  %76 = icmp ne i64 %75, 0
  br i1 %76, label %77, label %78

77:                                               ; preds = %54
  store i32 -1, ptr %18, align 4
  br label %264

78:                                               ; preds = %54
  %79 = load ptr, ptr %19, align 8
  store ptr %79, ptr %15, align 8
  %80 = load ptr, ptr %15, align 8
  %81 = getelementptr inbounds %struct._zval_struct, ptr %80, i32 0, i32 1
  %82 = getelementptr inbounds %struct.anon.0, ptr %81, i32 0, i32 1
  %83 = load i8, ptr %82, align 1
  %84 = zext i8 %83 to i32
  %85 = icmp ne i32 %84, 0
  br i1 %85, label %86, label %106

86:                                               ; preds = %78
  %87 = load ptr, ptr %15, align 8
  store ptr %87, ptr %7, align 8
  %88 = load ptr, ptr %7, align 8
  %89 = getelementptr inbounds %struct._zval_struct, ptr %88, i32 0, i32 1
  %90 = getelementptr inbounds %struct.anon.0, ptr %89, i32 0, i32 1
  %91 = load i8, ptr %90, align 1
  %92 = zext i8 %91 to i32
  %93 = icmp ne i32 %92, 0
  call void @llvm.assume(i1 %93)
  %94 = load ptr, ptr %7, align 8
  %95 = load ptr, ptr %94, align 8
  store ptr %95, ptr %6, align 8
  %96 = load ptr, ptr %6, align 8
  %97 = load i32, ptr %96, align 4
  %98 = icmp ugt i32 %97, 0
  call void @llvm.assume(i1 %98)
  %99 = load ptr, ptr %6, align 8
  %100 = load i32, ptr %99, align 4
  %101 = add i32 %100, -1
  store i32 %101, ptr %99, align 4
  %102 = icmp ne i32 %101, 0
  br i1 %102, label %106, label %103

103:                                              ; preds = %86
  %104 = load ptr, ptr %15, align 8
  %105 = load ptr, ptr %104, align 8
  call void @rc_dtor_func(ptr noundef %105) #14
  br label %106

106:                                              ; preds = %103, %86, %78
  br label %107

107:                                              ; preds = %106
  %108 = load ptr, ptr %19, align 8
  store ptr %108, ptr %25, align 8
  %109 = load ptr, ptr %24, align 8
  store ptr %109, ptr %26, align 8
  %110 = load ptr, ptr %26, align 8
  %111 = getelementptr inbounds %struct._zval_struct, ptr %110, i32 0, i32 0
  %112 = load ptr, ptr %111, align 8
  store ptr %112, ptr %27, align 8
  %113 = load ptr, ptr %26, align 8
  %114 = getelementptr inbounds %struct._zval_struct, ptr %113, i32 0, i32 1
  %115 = load i32, ptr %114, align 8
  store i32 %115, ptr %28, align 4
  br label %116

116:                                              ; preds = %107
  %117 = load ptr, ptr %27, align 8
  %118 = load ptr, ptr %25, align 8
  %119 = getelementptr inbounds %struct._zval_struct, ptr %118, i32 0, i32 0
  store ptr %117, ptr %119, align 8
  %120 = load i32, ptr %28, align 4
  %121 = load ptr, ptr %25, align 8
  %122 = getelementptr inbounds %struct._zval_struct, ptr %121, i32 0, i32 1
  store i32 %120, ptr %122, align 8
  br label %123

123:                                              ; preds = %116
  %124 = load i32, ptr %28, align 4
  %125 = and i32 %124, 65280
  %126 = icmp ne i32 %125, 0
  br i1 %126, label %127, label %162

127:                                              ; preds = %123
  %128 = load ptr, ptr %27, align 8
  %129 = getelementptr inbounds %struct._zend_refcounted, ptr %128, i32 0, i32 0
  %130 = getelementptr inbounds %struct._zend_refcounted_h, ptr %129, i32 0, i32 1
  %131 = load i32, ptr %130, align 4
  store i32 %131, ptr %12, align 4
  %132 = load i32, ptr %12, align 4
  %133 = and i32 %132, 1008
  %134 = and i32 %133, 128
  %135 = icmp ne i32 %134, 0
  br i1 %135, label %136, label %146

136:                                              ; preds = %127
  %137 = load ptr, ptr %27, align 8
  %138 = getelementptr inbounds %struct._zend_refcounted, ptr %137, i32 0, i32 0
  %139 = getelementptr inbounds %struct._zend_refcounted_h, ptr %138, i32 0, i32 1
  %140 = load i32, ptr %139, align 4
  store i32 %140, ptr %11, align 4
  %141 = load i32, ptr %11, align 4
  %142 = and i32 %141, 15
  %143 = trunc i32 %142 to i8
  %144 = zext i8 %143 to i32
  %145 = icmp eq i32 %144, 8
  br label %146

146:                                              ; preds = %136, %127
  %147 = phi i1 [ true, %127 ], [ %145, %136 ]
  %148 = xor i1 %147, true
  %149 = xor i1 %148, true
  %150 = zext i1 %149 to i32
  %151 = sext i32 %150 to i64
  %152 = icmp ne i64 %151, 0
  br i1 %152, label %153, label %159

153:                                              ; preds = %146
  %154 = load ptr, ptr %27, align 8
  %155 = getelementptr inbounds %struct._zend_refcounted, ptr %154, i32 0, i32 0
  store ptr %155, ptr %9, align 8
  %156 = load ptr, ptr %9, align 8
  %157 = load i32, ptr %156, align 4
  %158 = add i32 %157, 1
  store i32 %158, ptr %156, align 4
  br label %161

159:                                              ; preds = %146
  %160 = load ptr, ptr %25, align 8
  call void @zval_copy_ctor_func(ptr noundef %160)
  br label %161

161:                                              ; preds = %159, %153
  br label %162

162:                                              ; preds = %161, %123
  br label %163

163:                                              ; preds = %162
  br label %262

164:                                              ; preds = %44
  %165 = load ptr, ptr %19, align 8
  %166 = getelementptr inbounds %struct._zval_struct, ptr %165, i32 0, i32 0
  %167 = load ptr, ptr %166, align 8
  store ptr %167, ptr %31, align 8
  %168 = load ptr, ptr %31, align 8
  %169 = getelementptr inbounds %struct._zend_ast_ref, ptr %168, i32 0, i32 0
  %170 = getelementptr inbounds %struct._zend_refcounted_h, ptr %169, i32 0, i32 1
  %171 = load i32, ptr %170, align 4
  store i32 %171, ptr %13, align 4
  %172 = load i32, ptr %13, align 4
  %173 = and i32 %172, 1008
  %174 = and i32 %173, 64
  %175 = icmp ne i32 %174, 0
  %176 = xor i1 %175, true
  %177 = zext i1 %176 to i8
  store i8 %177, ptr %32, align 1
  %178 = load i8, ptr %32, align 1
  %179 = trunc i8 %178 to i1
  br i1 %179, label %180, label %186

180:                                              ; preds = %164
  %181 = load ptr, ptr %31, align 8
  %182 = getelementptr inbounds %struct._zend_ast_ref, ptr %181, i32 0, i32 0
  store ptr %182, ptr %10, align 8
  %183 = load ptr, ptr %10, align 8
  %184 = load i32, ptr %183, align 4
  %185 = add i32 %184, 1
  store i32 %185, ptr %183, align 4
  br label %186

186:                                              ; preds = %180, %164
  %187 = load ptr, ptr %22, align 8
  %188 = load ptr, ptr %20, align 8
  %189 = load ptr, ptr %21, align 8
  %190 = call i32 @zend_ast_evaluate_ex(ptr noundef %29, ptr noundef %187, ptr noundef %188, ptr noundef %30, ptr noundef %189)
  %191 = icmp ne i32 %190, 0
  %192 = zext i1 %191 to i32
  store i32 %192, ptr %33, align 4
  %193 = load i8, ptr %32, align 1
  %194 = trunc i8 %193 to i1
  br i1 %194, label %195, label %207

195:                                              ; preds = %186
  %196 = load ptr, ptr %31, align 8
  %197 = getelementptr inbounds %struct._zend_ast_ref, ptr %196, i32 0, i32 0
  store ptr %197, ptr %8, align 8
  %198 = load ptr, ptr %8, align 8
  %199 = load i32, ptr %198, align 4
  %200 = icmp ugt i32 %199, 0
  call void @llvm.assume(i1 %200)
  %201 = load ptr, ptr %8, align 8
  %202 = load i32, ptr %201, align 4
  %203 = add i32 %202, -1
  store i32 %203, ptr %201, align 4
  %204 = icmp ne i32 %203, 0
  br i1 %204, label %207, label %205

205:                                              ; preds = %195
  %206 = load ptr, ptr %31, align 8
  call void @rc_dtor_func(ptr noundef %206)
  br label %207

207:                                              ; preds = %205, %195, %186
  %208 = load i32, ptr %33, align 4
  %209 = icmp ne i32 %208, 0
  %210 = xor i1 %209, true
  %211 = xor i1 %210, true
  %212 = zext i1 %211 to i32
  %213 = sext i32 %212 to i64
  %214 = icmp ne i64 %213, 0
  br i1 %214, label %215, label %216

215:                                              ; preds = %207
  store i32 -1, ptr %18, align 4
  br label %264

216:                                              ; preds = %207
  %217 = load ptr, ptr %19, align 8
  store ptr %217, ptr %16, align 8
  %218 = load ptr, ptr %16, align 8
  %219 = getelementptr inbounds %struct._zval_struct, ptr %218, i32 0, i32 1
  %220 = getelementptr inbounds %struct.anon.0, ptr %219, i32 0, i32 1
  %221 = load i8, ptr %220, align 1
  %222 = zext i8 %221 to i32
  %223 = icmp ne i32 %222, 0
  br i1 %223, label %224, label %244

224:                                              ; preds = %216
  %225 = load ptr, ptr %16, align 8
  store ptr %225, ptr %5, align 8
  %226 = load ptr, ptr %5, align 8
  %227 = getelementptr inbounds %struct._zval_struct, ptr %226, i32 0, i32 1
  %228 = getelementptr inbounds %struct.anon.0, ptr %227, i32 0, i32 1
  %229 = load i8, ptr %228, align 1
  %230 = zext i8 %229 to i32
  %231 = icmp ne i32 %230, 0
  call void @llvm.assume(i1 %231)
  %232 = load ptr, ptr %5, align 8
  %233 = load ptr, ptr %232, align 8
  store ptr %233, ptr %4, align 8
  %234 = load ptr, ptr %4, align 8
  %235 = load i32, ptr %234, align 4
  %236 = icmp ugt i32 %235, 0
  call void @llvm.assume(i1 %236)
  %237 = load ptr, ptr %4, align 8
  %238 = load i32, ptr %237, align 4
  %239 = add i32 %238, -1
  store i32 %239, ptr %237, align 4
  %240 = icmp ne i32 %239, 0
  br i1 %240, label %244, label %241

241:                                              ; preds = %224
  %242 = load ptr, ptr %16, align 8
  %243 = load ptr, ptr %242, align 8
  call void @rc_dtor_func(ptr noundef %243) #14
  br label %244

244:                                              ; preds = %241, %224, %216
  br label %245

245:                                              ; preds = %244
  %246 = load ptr, ptr %19, align 8
  store ptr %246, ptr %34, align 8
  store ptr %29, ptr %35, align 8
  %247 = load ptr, ptr %35, align 8
  %248 = getelementptr inbounds %struct._zval_struct, ptr %247, i32 0, i32 0
  %249 = load ptr, ptr %248, align 8
  store ptr %249, ptr %36, align 8
  %250 = load ptr, ptr %35, align 8
  %251 = getelementptr inbounds %struct._zval_struct, ptr %250, i32 0, i32 1
  %252 = load i32, ptr %251, align 8
  store i32 %252, ptr %37, align 4
  br label %253

253:                                              ; preds = %245
  %254 = load ptr, ptr %36, align 8
  %255 = load ptr, ptr %34, align 8
  %256 = getelementptr inbounds %struct._zval_struct, ptr %255, i32 0, i32 0
  store ptr %254, ptr %256, align 8
  %257 = load i32, ptr %37, align 4
  %258 = load ptr, ptr %34, align 8
  %259 = getelementptr inbounds %struct._zval_struct, ptr %258, i32 0, i32 1
  store i32 %257, ptr %259, align 8
  br label %260

260:                                              ; preds = %253
  br label %261

261:                                              ; preds = %260
  br label %262

262:                                              ; preds = %261, %163
  br label %263

263:                                              ; preds = %262, %3
  store i32 0, ptr %18, align 4
  br label %264

264:                                              ; preds = %263, %215, %77
  %265 = load i32, ptr %18, align 4
  ret i32 %265
}