; Function Attrs: nounwind uwtable
define noundef i32 @zval_update_constant_with_ctx(ptr noundef %0, ptr noundef %1, ptr noundef %2) local_unnamed_addr #0 {
  %4 = alloca %struct._zval_struct, align 8
  %5 = alloca i8, align 1
  %6 = getelementptr inbounds i8, ptr %0, i64 8
  %7 = load i8, ptr %6, align 8
  %8 = icmp eq i8 %7, 11
  br i1 %8, label %9, label %77

9:                                                ; preds = %3
  %10 = load ptr, ptr %0, align 8
  %11 = getelementptr inbounds i8, ptr %10, i64 8
  %12 = load i16, ptr %11, align 8
  %13 = icmp eq i16 %12, 65
  br i1 %13, label %14, label %48

14:                                               ; preds = %9
  %15 = getelementptr inbounds i8, ptr %10, i64 16
  %16 = load ptr, ptr %15, align 8
  %17 = getelementptr inbounds i8, ptr %10, i64 10
  %18 = load i16, ptr %17, align 2
  %19 = zext i16 %18 to i32
  %20 = tail call ptr @zend_get_constant_ex(ptr noundef %16, ptr noundef %1, i32 noundef %19) #24
  %21 = icmp eq ptr %20, null
  br i1 %21, label %77, label %22

22:                                               ; preds = %14
  %23 = getelementptr inbounds i8, ptr %0, i64 9
  %24 = load i8, ptr %23, align 1
  %.not70 = icmp eq i8 %24, 0
  br i1 %.not70, label %32, label %25

25:                                               ; preds = %22
  %26 = load ptr, ptr %0, align 8
  %27 = load i32, ptr %26, align 4
  %28 = icmp ne i32 %27, 0
  tail call void @llvm.assume(i1 %28)
  %29 = add i32 %27, -1
  store i32 %29, ptr %26, align 4
  %.not71 = icmp eq i32 %29, 0
  br i1 %.not71, label %30, label %32

30:                                               ; preds = %25
  %31 = load ptr, ptr %0, align 8
  tail call void @rc_dtor_func(ptr noundef %31) #24
  br label %32

32:                                               ; preds = %22, %25, %30
  %33 = load ptr, ptr %20, align 8
  %34 = getelementptr inbounds i8, ptr %20, i64 8
  %35 = load i32, ptr %34, align 8
  store ptr %33, ptr %0, align 8
  store i32 %35, ptr %6, align 8
  %36 = and i32 %35, 65280
  %.not72 = icmp eq i32 %36, 0
  br i1 %.not72, label %77, label %37

37:                                               ; preds = %32
  %38 = getelementptr inbounds i8, ptr %33, i64 4
  %39 = load i32, ptr %38, align 4
  %40 = and i32 %39, 128
  %.not73 = icmp eq i32 %40, 0
  %41 = and i32 %39, 15
  %42 = icmp eq i32 %41, 8
  %43 = or i1 %.not73, %42
  br i1 %43, label %44, label %47

44:                                               ; preds = %37
  %45 = load i32, ptr %33, align 4
  %46 = add i32 %45, 1
  store i32 %46, ptr %33, align 4
  br label %77

47:                                               ; preds = %37
  tail call void @zval_copy_ctor_func(ptr noundef nonnull %0) #24
  br label %77

48:                                               ; preds = %9
  %49 = getelementptr inbounds i8, ptr %10, i64 4
  %50 = load i32, ptr %49, align 4
  %51 = and i32 %50, 64
  %.not = icmp eq i32 %51, 0
  br i1 %.not, label %54, label %52

52:                                               ; preds = %48
  %53 = call i32 @zend_ast_evaluate_ex(ptr noundef nonnull %4, ptr noundef nonnull %11, ptr noundef %1, ptr noundef nonnull %5, ptr noundef %2) #24
  %.not66 = icmp eq i32 %53, 0
  br i1 %.not66, label %63, label %77

54:                                               ; preds = %48
  %55 = load i32, ptr %10, align 4
  %56 = add i32 %55, 1
  store i32 %56, ptr %10, align 4
  %57 = call i32 @zend_ast_evaluate_ex(ptr noundef nonnull %4, ptr noundef nonnull %11, ptr noundef %1, ptr noundef nonnull %5, ptr noundef %2) #24
  %.not6674 = icmp eq i32 %57, 0
  %58 = load i32, ptr %10, align 4
  %59 = icmp ne i32 %58, 0
  call void @llvm.assume(i1 %59)
  %60 = add i32 %58, -1
  store i32 %60, ptr %10, align 4
  %.not67 = icmp eq i32 %60, 0
  br i1 %.not67, label %61, label %62

61:                                               ; preds = %54
  call void @rc_dtor_func(ptr noundef nonnull %10) #24
  br i1 %.not6674, label %63, label %77

62:                                               ; preds = %54
  br i1 %.not6674, label %63, label %77

63:                                               ; preds = %52, %61, %62
  %64 = getelementptr inbounds i8, ptr %0, i64 9
  %65 = load i8, ptr %64, align 1
  %.not68 = icmp eq i8 %65, 0
  br i1 %.not68, label %73, label %66

66:                                               ; preds = %63
  %67 = load ptr, ptr %0, align 8
  %68 = load i32, ptr %67, align 4
  %69 = icmp ne i32 %68, 0
  call void @llvm.assume(i1 %69)
  %70 = add i32 %68, -1
  store i32 %70, ptr %67, align 4
  %.not69 = icmp eq i32 %70, 0
  br i1 %.not69, label %71, label %73

71:                                               ; preds = %66
  %72 = load ptr, ptr %0, align 8
  call void @rc_dtor_func(ptr noundef %72) #24
  br label %73

73:                                               ; preds = %63, %66, %71
  %74 = load ptr, ptr %4, align 8
  %75 = getelementptr inbounds i8, ptr %4, i64 8
  %76 = load i32, ptr %75, align 8
  store ptr %74, ptr %0, align 8
  store i32 %76, ptr %6, align 8
  br label %77

77:                                               ; preds = %52, %61, %3, %44, %47, %32, %73, %62, %14
  %.0 = phi i32 [ -1, %14 ], [ -1, %62 ], [ 0, %73 ], [ 0, %32 ], [ 0, %47 ], [ 0, %44 ], [ 0, %3 ], [ -1, %61 ], [ -1, %52 ]
  ret i32 %.0
}